target datalayout = "e-m:e-p270:32:32-p271:32:32-p272:64:64-i64:64-i128:128-f80:128-n8:16:32:64-S128"
target triple = "x86_64-pc-linux-gnu"

; Function Attrs: alwaysinline nounwind uwtable
define internal ptr @tsd_tsdn(ptr noundef %0) #2 {
  %2 = alloca ptr, align 8
  store ptr %0, ptr %2, align 8, !tbaa !4
  %3 = load ptr, ptr %2, align 8, !tbaa !4
  ret ptr %3
}

; Function Attrs: nounwind uwtable
define internal i32 @arena_i_purge_ctl(ptr noundef %0, ptr noundef %1, i64 noundef %2, ptr noundef %3, ptr noundef %4, ptr noundef %5, i64 noundef %6) #0 {
  %8 = alloca ptr, align 8
  %9 = alloca ptr, align 8
  %10 = alloca i64, align 8
  %11 = alloca ptr, align 8
  %12 = alloca ptr, align 8
  %13 = alloca ptr, align 8
  %14 = alloca i64, align 8
  %15 = alloca i32, align 4
  %16 = alloca i32, align 4
  store ptr %0, ptr %8, align 8, !tbaa !4
  store ptr %1, ptr %9, align 8, !tbaa !12
  store i64 %2, ptr %10, align 8, !tbaa !14
  store ptr %3, ptr %11, align 8, !tbaa !11
  store ptr %4, ptr %12, align 8, !tbaa !12
  store ptr %5, ptr %13, align 8, !tbaa !11
  store i64 %6, ptr %14, align 8, !tbaa !14
  call void @llvm.lifetime.start.p0(i64 4, ptr %15) #13
  call void @llvm.lifetime.start.p0(i64 4, ptr %16) #13
  br label %17

17:                                               ; preds = %7
  %18 = load ptr, ptr %11, align 8, !tbaa !11
  %19 = icmp ne ptr %18, null
  br i1 %19, label %29, label %20

20:                                               ; preds = %17
  %21 = load ptr, ptr %12, align 8, !tbaa !12
  %22 = icmp ne ptr %21, null
  br i1 %22, label %29, label %23

23:                                               ; preds = %20
  %24 = load ptr, ptr %13, align 8, !tbaa !11
  %25 = icmp ne ptr %24, null
  br i1 %25, label %29, label %26

26:                                               ; preds = %23
  %27 = load i64, ptr %14, align 8, !tbaa !14
  %28 = icmp ne i64 %27, 0
  br i1 %28, label %29, label %30

29:                                               ; preds = %26, %23, %20, %17
  store i32 1, ptr %15, align 4, !tbaa !20
  br label %49

30:                                               ; preds = %26
  br label %31

31:                                               ; preds = %30
  br label %32

32:                                               ; preds = %31
  br label %33

33:                                               ; preds = %32
  %34 = load ptr, ptr %9, align 8, !tbaa !12
  %35 = getelementptr inbounds i64, ptr %34, i64 1
  %36 = load i64, ptr %35, align 8, !tbaa !14
  %37 = icmp ugt i64 %36, 4294967295
  br i1 %37, label %38, label %39

38:                                               ; preds = %33
  store i32 14, ptr %15, align 4, !tbaa !20
  br label %49

39:                                               ; preds = %33
  %40 = load ptr, ptr %9, align 8, !tbaa !12
  %41 = getelementptr inbounds i64, ptr %40, i64 1
  %42 = load i64, ptr %41, align 8, !tbaa !14
  %43 = trunc i64 %42 to i32
  store i32 %43, ptr %16, align 4, !tbaa !20
  br label %44

44:                                               ; preds = %39
  br label %45

45:                                               ; preds = %44
  %46 = load ptr, ptr %8, align 8, !tbaa !4
  %47 = call ptr @tsd_tsdn(ptr noundef %46)
  %48 = load i32, ptr %16, align 4, !tbaa !20
  call void @arena_i_decay(ptr noundef %47, i32 noundef %48, i1 noundef zeroext true)
  store i32 0, ptr %15, align 4, !tbaa !20
  br label %49

49:                                               ; preds = %45, %38, %29
  %50 = load i32, ptr %15, align 4, !tbaa !20
  call void @llvm.lifetime.end.p0(i64 4, ptr %16) #13
  call void @llvm.lifetime.end.p0(i64 4, ptr %15) #13
  ret i32 %50
}