; Function Attrs: nounwind uwtable
define internal range(i32 0, 15) i32 @arena_i_purge_ctl(ptr noundef %0, ptr noundef readonly captures(none) %1, i64 %2, ptr noundef readnone captures(address_is_null) %3, ptr noundef readnone captures(address_is_null) %4, ptr noundef readnone captures(address_is_null) %5, i64 noundef %6) #0 {
  %8 = icmp ne ptr %3, null
  %9 = icmp ne ptr %4, null
  %or.cond = or i1 %8, %9
  %10 = icmp ne ptr %5, null
  %or.cond3 = or i1 %or.cond, %10
  %11 = icmp ne i64 %6, 0
  %or.cond5 = or i1 %or.cond3, %11
  br i1 %or.cond5, label %18, label %12

12:                                               ; preds = %7
  %13 = getelementptr inbounds nuw i8, ptr %1, i64 8
  %14 = load i64, ptr %13, align 8, !tbaa !4
  %15 = icmp ugt i64 %14, 4294967295
  br i1 %15, label %18, label %16

16:                                               ; preds = %12
  %17 = trunc nuw i64 %14 to i32
  tail call fastcc void @arena_i_decay(ptr noundef %0, i32 noundef %17, i1 noundef zeroext true)
  br label %18

18:                                               ; preds = %12, %7, %16
  %.0 = phi i32 [ 0, %16 ], [ 1, %7 ], [ 14, %12 ]
  ret i32 %.0
}